; ModuleID = 'source-C-CXX/41/994.cpp'
source_filename = "source-C-CXX/41/994.cpp"
target datalayout = "e-m:e-p270:32:32-p271:32:32-p272:64:64-i64:64-f80:128-n8:16:32:64-S128"
target triple = "x86_64-pc-linux-gnu"

%"class.std::ios_base::Init" = type { i8 }
%"class.std::basic_istream" = type { i32 (...)**, i64, %"class.std::basic_ios" }
%"class.std::basic_ios" = type { %"class.std::ios_base", %"class.std::basic_ostream"*, i8, i8, %"class.std::basic_streambuf"*, %"class.std::ctype"*, %"class.std::num_put"*, %"class.std::num_get"* }
%"class.std::ios_base" = type { i32 (...)**, i64, i64, i32, i32, i32, %"struct.std::ios_base::_Callback_list"*, %"struct.std::ios_base::_Words", [8 x %"struct.std::ios_base::_Words"], i32, %"struct.std::ios_base::_Words"*, %"class.std::locale" }
%"struct.std::ios_base::_Callback_list" = type { %"struct.std::ios_base::_Callback_list"*, void (i32, %"class.std::ios_base"*, i32)*, i32, i32 }
%"struct.std::ios_base::_Words" = type { i8*, i64 }
%"class.std::locale" = type { %"class.std::locale::_Impl"* }
%"class.std::locale::_Impl" = type { i32, %"class.std::locale::facet"**, i64, %"class.std::locale::facet"**, i8** }
%"class.std::locale::facet" = type <{ i32 (...)**, i32, [4 x i8] }>
%"class.std::basic_ostream" = type { i32 (...)**, %"class.std::basic_ios" }
%"class.std::basic_streambuf" = type { i32 (...)**, i8*, i8*, i8*, i8*, i8*, i8*, %"class.std::locale" }
%"class.std::ctype" = type <{ %"class.std::locale::facet.base", [4 x i8], %struct.__locale_struct*, i8, [7 x i8], i32*, i32*, i16*, i8, [256 x i8], [256 x i8], i8, [6 x i8] }>
%"class.std::locale::facet.base" = type <{ i32 (...)**, i32 }>
%struct.__locale_struct = type { [13 x %struct.__locale_data*], i16*, i32*, i32*, [13 x i8*] }
%struct.__locale_data = type opaque
%"class.std::num_put" = type { %"class.std::locale::facet.base", [4 x i8] }
%"class.std::num_get" = type { %"class.std::locale::facet.base", [4 x i8] }

@_ZStL8__ioinit = internal global %"class.std::ios_base::Init" zeroinitializer, align 1
@__dso_handle = external hidden global i8
@_ZSt3cin = external global %"class.std::basic_istream", align 8
@_ZSt4cout = external global %"class.std::basic_ostream", align 8
@.str = private unnamed_addr constant [2 x i8] c" \00", align 1
@llvm.global_ctors = appending global [1 x { i32, void ()*, i8* }] [{ i32, void ()*, i8* } { i32 65535, void ()* @_GLOBAL__sub_I_994.cpp, i8* null }]

declare void @_ZNSt8ios_base4InitC1Ev(%"class.std::ios_base::Init"* nonnull align 1 dereferenceable(1)) unnamed_addr #0

; Function Attrs: nounwind
declare void @_ZNSt8ios_base4InitD1Ev(%"class.std::ios_base::Init"* nonnull align 1 dereferenceable(1)) unnamed_addr #1

; Function Attrs: nofree nounwind
declare i32 @__cxa_atexit(void (i8*)*, i8*, i8*) local_unnamed_addr #2

; Function Attrs: mustprogress norecurse sspstrong uwtable
define dso_local i32 @main() local_unnamed_addr #3 {
  %1 = alloca i32, align 4
  %2 = alloca [100001 x i32], align 16
  %3 = alloca i32, align 4
  %4 = bitcast i32* %1 to i8*
  call void @llvm.lifetime.start.p0i8(i64 4, i8* nonnull %4) #7
  %5 = bitcast [100001 x i32]* %2 to i8*
  call void @llvm.lifetime.start.p0i8(i64 400004, i8* nonnull %5) #7
  %6 = bitcast i32* %3 to i8*
  call void @llvm.lifetime.start.p0i8(i64 4, i8* nonnull %6) #7
  %7 = call nonnull align 8 dereferenceable(16) %"class.std::basic_istream"* @_ZNSirsERi(%"class.std::basic_istream"* nonnull align 8 dereferenceable(16) @_ZSt3cin, i32* nonnull align 4 dereferenceable(4) %1)
  %8 = load i32, i32* %1, align 4, !tbaa !5
  %9 = icmp slt i32 %8, 1
  br i1 %9, label %18, label %10

10:                                               ; preds = %0, %10
  %11 = phi i64 [ %14, %10 ], [ 1, %0 ]
  %12 = getelementptr inbounds [100001 x i32], [100001 x i32]* %2, i64 0, i64 %11
  %13 = call nonnull align 8 dereferenceable(16) %"class.std::basic_istream"* @_ZNSirsERi(%"class.std::basic_istream"* nonnull align 8 dereferenceable(16) @_ZSt3cin, i32* nonnull align 4 dereferenceable(4) %12)
  %14 = add nuw nsw i64 %11, 1
  %15 = load i32, i32* %1, align 4, !tbaa !5
  %16 = sext i32 %15 to i64
  %17 = icmp slt i64 %11, %16
  br i1 %17, label %10, label %18, !llvm.loop !9

18:                                               ; preds = %10, %0
  %19 = call nonnull align 8 dereferenceable(16) %"class.std::basic_istream"* @_ZNSirsERi(%"class.std::basic_istream"* nonnull align 8 dereferenceable(16) @_ZSt3cin, i32* nonnull align 4 dereferenceable(4) %3)
  %20 = load i32, i32* %3, align 4
  %21 = load i32, i32* %1, align 4, !tbaa !5
  %22 = icmp slt i32 %21, 1
  br i1 %22, label %138, label %23

23:                                               ; preds = %18, %122
  %24 = phi i64 [ %127, %122 ], [ 0, %18 ]
  %25 = phi i32 [ %123, %122 ], [ %21, %18 ]
  %26 = phi i64 [ %124, %122 ], [ 1, %18 ]
  %27 = getelementptr inbounds [100001 x i32], [100001 x i32]* %2, i64 0, i64 %26
  %28 = load i32, i32* %27, align 4, !tbaa !5
  %29 = icmp eq i32 %28, %20
  br i1 %29, label %30, label %122

30:                                               ; preds = %23
  %31 = sext i32 %25 to i64
  %32 = sext i32 %25 to i64
  br label %35

33:                                               ; preds = %122
  %34 = icmp sgt i32 %123, 1
  br i1 %34, label %128, label %138

35:                                               ; preds = %30, %115
  %36 = phi i64 [ 0, %30 ], [ %119, %115 ]
  %37 = phi i64 [ %31, %30 ], [ %117, %115 ]
  %38 = add i64 %24, %36
  %39 = sub i64 %32, %38
  %40 = add i64 %39, -8
  %41 = lshr i64 %40, 3
  %42 = add nuw nsw i64 %41, 1
  %43 = add i64 %24, %36
  %44 = sub i64 %31, %43
  %45 = icmp sgt i64 %26, %37
  br i1 %45, label %115, label %46

46:                                               ; preds = %35
  %47 = icmp ult i64 %44, 8
  br i1 %47, label %104, label %48

48:                                               ; preds = %46
  %49 = and i64 %44, -8
  %50 = add i64 %26, %49
  %51 = and i64 %42, 1
  %52 = icmp ult i64 %40, 8
  br i1 %52, label %86, label %53

53:                                               ; preds = %48
  %54 = and i64 %42, 4611686018427387902
  br label %55

55:                                               ; preds = %55, %53
  %56 = phi i64 [ 0, %53 ], [ %83, %55 ]
  %57 = phi i64 [ %54, %53 ], [ %84, %55 ]
  %58 = add i64 %26, %56
  %59 = add nuw nsw i64 %58, 1
  %60 = getelementptr inbounds [100001 x i32], [100001 x i32]* %2, i64 0, i64 %59
  %61 = bitcast i32* %60 to <4 x i32>*
  %62 = load <4 x i32>, <4 x i32>* %61, align 4, !tbaa !5
  %63 = getelementptr inbounds i32, i32* %60, i64 4
  %64 = bitcast i32* %63 to <4 x i32>*
  %65 = load <4 x i32>, <4 x i32>* %64, align 4, !tbaa !5
  %66 = getelementptr inbounds [100001 x i32], [100001 x i32]* %2, i64 0, i64 %58
  %67 = bitcast i32* %66 to <4 x i32>*
  store <4 x i32> %62, <4 x i32>* %67, align 4, !tbaa !5
  %68 = getelementptr inbounds i32, i32* %66, i64 4
  %69 = bitcast i32* %68 to <4 x i32>*
  store <4 x i32> %65, <4 x i32>* %69, align 4, !tbaa !5
  %70 = or i64 %56, 8
  %71 = add i64 %26, %70
  %72 = add nuw nsw i64 %71, 1
  %73 = getelementptr inbounds [100001 x i32], [100001 x i32]* %2, i64 0, i64 %72
  %74 = bitcast i32* %73 to <4 x i32>*
  %75 = load <4 x i32>, <4 x i32>* %74, align 4, !tbaa !5
  %76 = getelementptr inbounds i32, i32* %73, i64 4
  %77 = bitcast i32* %76 to <4 x i32>*
  %78 = load <4 x i32>, <4 x i32>* %77, align 4, !tbaa !5
  %79 = getelementptr inbounds [100001 x i32], [100001 x i32]* %2, i64 0, i64 %71
  %80 = bitcast i32* %79 to <4 x i32>*
  store <4 x i32> %75, <4 x i32>* %80, align 4, !tbaa !5
  %81 = getelementptr inbounds i32, i32* %79, i64 4
  %82 = bitcast i32* %81 to <4 x i32>*
  store <4 x i32> %78, <4 x i32>* %82, align 4, !tbaa !5
  %83 = add nuw i64 %56, 16
  %84 = add i64 %57, -2
  %85 = icmp eq i64 %84, 0
  br i1 %85, label %86, label %55, !llvm.loop !11

86:                                               ; preds = %55, %48
  %87 = phi i64 [ 0, %48 ], [ %83, %55 ]
  %88 = icmp eq i64 %51, 0
  br i1 %88, label %102, label %89

89:                                               ; preds = %86
  %90 = add i64 %26, %87
  %91 = add nuw nsw i64 %90, 1
  %92 = getelementptr inbounds [100001 x i32], [100001 x i32]* %2, i64 0, i64 %91
  %93 = bitcast i32* %92 to <4 x i32>*
  %94 = load <4 x i32>, <4 x i32>* %93, align 4, !tbaa !5
  %95 = getelementptr inbounds i32, i32* %92, i64 4
  %96 = bitcast i32* %95 to <4 x i32>*
  %97 = load <4 x i32>, <4 x i32>* %96, align 4, !tbaa !5
  %98 = getelementptr inbounds [100001 x i32], [100001 x i32]* %2, i64 0, i64 %90
  %99 = bitcast i32* %98 to <4 x i32>*
  store <4 x i32> %94, <4 x i32>* %99, align 4, !tbaa !5
  %100 = getelementptr inbounds i32, i32* %98, i64 4
  %101 = bitcast i32* %100 to <4 x i32>*
  store <4 x i32> %97, <4 x i32>* %101, align 4, !tbaa !5
  br label %102

102:                                              ; preds = %86, %89
  %103 = icmp eq i64 %44, %49
  br i1 %103, label %113, label %104

104:                                              ; preds = %46, %102
  %105 = phi i64 [ %26, %46 ], [ %50, %102 ]
  br label %106

106:                                              ; preds = %104, %106
  %107 = phi i64 [ %108, %106 ], [ %105, %104 ]
  %108 = add nuw nsw i64 %107, 1
  %109 = getelementptr inbounds [100001 x i32], [100001 x i32]* %2, i64 0, i64 %108
  %110 = load i32, i32* %109, align 4, !tbaa !5
  %111 = getelementptr inbounds [100001 x i32], [100001 x i32]* %2, i64 0, i64 %107
  store i32 %110, i32* %111, align 4, !tbaa !5
  %112 = icmp slt i64 %107, %37
  br i1 %112, label %106, label %113, !llvm.loop !13

113:                                              ; preds = %106, %102
  %114 = load i32, i32* %27, align 4, !tbaa !5
  br label %115

115:                                              ; preds = %113, %35
  %116 = phi i32 [ %114, %113 ], [ %20, %35 ]
  %117 = add i64 %37, -1
  %118 = icmp eq i32 %116, %20
  %119 = add i64 %36, 1
  br i1 %118, label %35, label %120, !llvm.loop !15

120:                                              ; preds = %115
  %121 = trunc i64 %117 to i32
  store i32 %121, i32* %1, align 4, !tbaa !5
  br label %122

122:                                              ; preds = %120, %23
  %123 = phi i32 [ %121, %120 ], [ %25, %23 ]
  %124 = add nuw nsw i64 %26, 1
  %125 = sext i32 %123 to i64
  %126 = icmp slt i64 %26, %125
  %127 = add i64 %24, 1
  br i1 %126, label %23, label %33, !llvm.loop !16

128:                                              ; preds = %33, %128
  %129 = phi i64 [ %134, %128 ], [ 1, %33 ]
  %130 = getelementptr inbounds [100001 x i32], [100001 x i32]* %2, i64 0, i64 %129
  %131 = load i32, i32* %130, align 4, !tbaa !5
  %132 = call nonnull align 8 dereferenceable(8) %"class.std::basic_ostream"* @_ZNSolsEi(%"class.std::basic_ostream"* nonnull align 8 dereferenceable(8) @_ZSt4cout, i32 %131)
  %133 = call nonnull align 8 dereferenceable(8) %"class.std::basic_ostream"* @_ZSt16__ostream_insertIcSt11char_traitsIcEERSt13basic_ostreamIT_T0_ES6_PKS3_l(%"class.std::basic_ostream"* nonnull align 8 dereferenceable(8) %132, i8* nonnull getelementptr inbounds ([2 x i8], [2 x i8]* @.str, i64 0, i64 0), i64 1)
  %134 = add nuw nsw i64 %129, 1
  %135 = load i32, i32* %1, align 4, !tbaa !5
  %136 = sext i32 %135 to i64
  %137 = icmp slt i64 %134, %136
  br i1 %137, label %128, label %138, !llvm.loop !17

138:                                              ; preds = %128, %33, %18
  %139 = phi i32 [ %123, %33 ], [ %21, %18 ], [ %135, %128 ]
  %140 = sext i32 %139 to i64
  %141 = getelementptr inbounds [100001 x i32], [100001 x i32]* %2, i64 0, i64 %140
  %142 = load i32, i32* %141, align 4, !tbaa !5
  %143 = call nonnull align 8 dereferenceable(8) %"class.std::basic_ostream"* @_ZNSolsEi(%"class.std::basic_ostream"* nonnull align 8 dereferenceable(8) @_ZSt4cout, i32 %142)
  %144 = bitcast %"class.std::basic_ostream"* %143 to i8**
  %145 = load i8*, i8** %144, align 8, !tbaa !18
  %146 = getelementptr i8, i8* %145, i64 -24
  %147 = bitcast i8* %146 to i64*
  %148 = load i64, i64* %147, align 8
  %149 = bitcast %"class.std::basic_ostream"* %143 to i8*
  %150 = add nsw i64 %148, 240
  %151 = getelementptr inbounds i8, i8* %149, i64 %150
  %152 = bitcast i8* %151 to %"class.std::ctype"**
  %153 = load %"class.std::ctype"*, %"class.std::ctype"** %152, align 8, !tbaa !20
  %154 = icmp eq %"class.std::ctype"* %153, null
  br i1 %154, label %155, label %156

155:                                              ; preds = %138
  call void @_ZSt16__throw_bad_castv() #8
  unreachable

156:                                              ; preds = %138
  %157 = getelementptr inbounds %"class.std::ctype", %"class.std::ctype"* %153, i64 0, i32 8
  %158 = load i8, i8* %157, align 8, !tbaa !24
  %159 = icmp eq i8 %158, 0
  br i1 %159, label %163, label %160

160:                                              ; preds = %156
  %161 = getelementptr inbounds %"class.std::ctype", %"class.std::ctype"* %153, i64 0, i32 9, i64 10
  %162 = load i8, i8* %161, align 1, !tbaa !26
  br label %169

163:                                              ; preds = %156
  call void @_ZNKSt5ctypeIcE13_M_widen_initEv(%"class.std::ctype"* nonnull align 8 dereferenceable(570) %153)
  %164 = bitcast %"class.std::ctype"* %153 to i8 (%"class.std::ctype"*, i8)***
  %165 = load i8 (%"class.std::ctype"*, i8)**, i8 (%"class.std::ctype"*, i8)*** %164, align 8, !tbaa !18
  %166 = getelementptr inbounds i8 (%"class.std::ctype"*, i8)*, i8 (%"class.std::ctype"*, i8)** %165, i64 6
  %167 = load i8 (%"class.std::ctype"*, i8)*, i8 (%"class.std::ctype"*, i8)** %166, align 8
  %168 = call signext i8 %167(%"class.std::ctype"* nonnull align 8 dereferenceable(570) %153, i8 signext 10)
  br label %169

169:                                              ; preds = %160, %163
  %170 = phi i8 [ %162, %160 ], [ %168, %163 ]
  %171 = call nonnull align 8 dereferenceable(8) %"class.std::basic_ostream"* @_ZNSo3putEc(%"class.std::basic_ostream"* nonnull align 8 dereferenceable(8) %143, i8 signext %170)
  %172 = call nonnull align 8 dereferenceable(8) %"class.std::basic_ostream"* @_ZNSo5flushEv(%"class.std::basic_ostream"* nonnull align 8 dereferenceable(8) %171)
  call void @llvm.lifetime.end.p0i8(i64 4, i8* nonnull %6) #7
  call void @llvm.lifetime.end.p0i8(i64 400004, i8* nonnull %5) #7
  call void @llvm.lifetime.end.p0i8(i64 4, i8* nonnull %4) #7
  ret i32 0
}

; Function Attrs: argmemonly mustprogress nofree nosync nounwind willreturn
declare void @llvm.lifetime.start.p0i8(i64 immarg, i8* nocapture) #4

declare nonnull align 8 dereferenceable(16) %"class.std::basic_istream"* @_ZNSirsERi(%"class.std::basic_istream"* nonnull align 8 dereferenceable(16), i32* nonnull align 4 dereferenceable(4)) local_unnamed_addr #0

declare nonnull align 8 dereferenceable(8) %"class.std::basic_ostream"* @_ZNSolsEi(%"class.std::basic_ostream"* nonnull align 8 dereferenceable(8), i32) local_unnamed_addr #0

; Function Attrs: argmemonly mustprogress nofree nosync nounwind willreturn
declare void @llvm.lifetime.end.p0i8(i64 immarg, i8* nocapture) #4

declare nonnull align 8 dereferenceable(8) %"class.std::basic_ostream"* @_ZSt16__ostream_insertIcSt11char_traitsIcEERSt13basic_ostreamIT_T0_ES6_PKS3_l(%"class.std::basic_ostream"* nonnull align 8 dereferenceable(8), i8*, i64) local_unnamed_addr #0

declare nonnull align 8 dereferenceable(8) %"class.std::basic_ostream"* @_ZNSo3putEc(%"class.std::basic_ostream"* nonnull align 8 dereferenceable(8), i8 signext) local_unnamed_addr #0

declare nonnull align 8 dereferenceable(8) %"class.std::basic_ostream"* @_ZNSo5flushEv(%"class.std::basic_ostream"* nonnull align 8 dereferenceable(8)) local_unnamed_addr #0

; Function Attrs: noreturn
declare void @_ZSt16__throw_bad_castv() local_unnamed_addr #5

declare void @_ZNKSt5ctypeIcE13_M_widen_initEv(%"class.std::ctype"* nonnull align 8 dereferenceable(570)) local_unnamed_addr #0

; Function Attrs: sspstrong uwtable
define internal void @_GLOBAL__sub_I_994.cpp() #6 section ".text.startup" {
  tail call void @_ZNSt8ios_base4InitC1Ev(%"class.std::ios_base::Init"* nonnull align 1 dereferenceable(1) @_ZStL8__ioinit)
  %1 = tail call i32 @__cxa_atexit(void (i8*)* bitcast (void (%"class.std::ios_base::Init"*)* @_ZNSt8ios_base4InitD1Ev to void (i8*)*), i8* getelementptr inbounds (%"class.std::ios_base::Init", %"class.std::ios_base::Init"* @_ZStL8__ioinit, i64 0, i32 0), i8* nonnull @__dso_handle) #7
  ret void
}


!llvm.module.flags = !{!0, !1, !2, !3}
!llvm.ident = !{!4}

!0 = !{i32 1, !"wchar_size", i32 4}
!1 = !{i32 7, !"PIC Level", i32 2}
!2 = !{i32 7, !"PIE Level", i32 2}
!3 = !{i32 7, !"uwtable", i32 1}
!4 = !{!"clang version 13.0.0"}
!5 = !{!6, !6, i64 0}
!6 = !{!"int", !7, i64 0}
!7 = !{!"omnipotent char", !8, i64 0}
!8 = !{!"Simple C++ TBAA"}
!9 = distinct !{!9, !10}
!10 = !{!"llvm.loop.mustprogress"}
!11 = distinct !{!11, !10, !12}
!12 = !{!"llvm.loop.isvectorized", i32 1}
!13 = distinct !{!13, !10, !14, !12}
!14 = !{!"llvm.loop.unroll.runtime.disable"}
!15 = distinct !{!15, !10}
!16 = distinct !{!16, !10}
!17 = distinct !{!17, !10}
!18 = !{!19, !19, i64 0}
!19 = !{!"vtable pointer", !8, i64 0}
!20 = !{!21, !22, i64 240}
!21 = !{!"_ZTSSt9basic_iosIcSt11char_traitsIcEE", !22, i64 216, !7, i64 224, !23, i64 225, !22, i64 232, !22, i64 240, !22, i64 248, !22, i64 256}
!22 = !{!"any pointer", !7, i64 0}
!23 = !{!"bool", !7, i64 0}
!24 = !{!25, !7, i64 56}
!25 = !{!"_ZTSSt5ctypeIcE", !22, i64 16, !23, i64 24, !22, i64 32, !22, i64 40, !22, i64 48, !7, i64 56, !7, i64 57, !7, i64 313, !7, i64 569}
!26 = !{!7, !7, i64 0}
